; Function Attrs: mustprogress nounwind uwtable
define hidden noundef ptr @_ZN11OptoRuntime30digestBase_implCompressMB_TypeEb(i1 noundef zeroext %0) local_unnamed_addr #0 align 2 {
  %2 = select i1 %0, i32 5, i32 4
  %3 = tail call noundef ptr @_ZN9TypeTuple6fieldsEj(i32 noundef %2) #12
  %4 = load ptr, ptr @_ZN7TypePtr7NOTNULLE, align 8
  %5 = getelementptr inbounds i8, ptr %3, i64 40
  store ptr %4, ptr %5, align 8
  %6 = getelementptr inbounds i8, ptr %3, i64 48
  store ptr %4, ptr %6, align 8
  %.pre = load ptr, ptr @_ZN7TypeInt3INTE, align 8
  br i1 %0, label %7, label %9

7:                                                ; preds = %1
  %8 = getelementptr inbounds i8, ptr %3, i64 56
  store ptr %.pre, ptr %8, align 8
  br label %9

9:                                                ; preds = %7, %1
  %.0 = phi i64 [ 8, %7 ], [ 7, %1 ]
  %10 = getelementptr inbounds ptr, ptr %3, i64 %.0
  store ptr %.pre, ptr %10, align 8
  %11 = load ptr, ptr @_ZN7TypeInt3INTE, align 8
  %12 = getelementptr inbounds i8, ptr %10, i64 8
  store ptr %11, ptr %12, align 8
  %13 = add nuw nsw i32 %2, 5
  %14 = tail call noundef ptr @_ZN9TypeTuple4makeEjPPK4Type(i32 noundef %13, ptr noundef nonnull %3) #12
  %15 = tail call noundef ptr @_ZN9TypeTuple6fieldsEj(i32 noundef 1) #12
  %16 = load ptr, ptr @_ZN7TypeInt3INTE, align 8
  %17 = getelementptr inbounds i8, ptr %15, i64 40
  store ptr %16, ptr %17, align 8
  %18 = tail call noundef ptr @_ZN9TypeTuple4makeEjPPK4Type(i32 noundef 6, ptr noundef %15) #12
  %19 = tail call noundef ptr @_ZN8TypeFunc4makeEPK9TypeTupleS2_(ptr noundef %14, ptr noundef %18) #12
  ret ptr %19
}